; Function Attrs: nounwind sspstrong uwtable
define dso_local void @msix_uninit(ptr noundef %dev, ptr noundef %table_bar, ptr noundef %pba_bar) local_unnamed_addr #0 {
entry:
  %cap_present.i = getelementptr inbounds nuw i8, ptr %dev, i64 1260
  %0 = load i32, ptr %cap_present.i, align 4
  %and.i = and i32 %0, 2
  %tobool.not = icmp eq i32 %and.i, 0
  br i1 %tobool.not, label %return, label %if.end

if.end:                                           ; preds = %entry
  tail call void @pci_del_capability(ptr noundef nonnull %dev, i8 noundef zeroext 17, i8 noundef zeroext 12) #14
  %msix_cap = getelementptr inbounds nuw i8, ptr %dev, i64 1264
  store i8 0, ptr %msix_cap, align 16
  %msix_entries_nr.i = getelementptr inbounds nuw i8, ptr %dev, i64 1268
  %1 = load i32, ptr %msix_entries_nr.i, align 4
  %cmp7.i = icmp sgt i32 %1, 0
  br i1 %cmp7.i, label %for.body.lr.ph.i, label %msix_free_irq_entries.exit

for.body.lr.ph.i:                                 ; preds = %if.end
  %msix_entry_used.i = getelementptr inbounds nuw i8, ptr %dev, i64 2144
  %2 = getelementptr i8, ptr %dev, i64 1280
  br label %for.body.i

for.body.i:                                       ; preds = %for.body.i, %for.body.lr.ph.i
  %indvars.iv.i = phi i64 [ 0, %for.body.lr.ph.i ], [ %indvars.iv.next.i, %for.body.i ]
  %3 = load ptr, ptr %msix_entry_used.i, align 16
  %arrayidx.i = getelementptr i32, ptr %3, i64 %indvars.iv.i
  store i32 0, ptr %arrayidx.i, align 4
  %4 = trunc i64 %indvars.iv.i to i8
  %rem1.i.i.i = and i8 %4, 7
  %shl.i.i.i = shl nuw i8 1, %rem1.i.i.i
  %not.i.i = xor i8 %shl.i.i.i, -1
  %dev.val.i.i = load ptr, ptr %2, align 16
  %div.i.i6.i = lshr i64 %indvars.iv.i, 3
  %idx.ext.i.i.i = and i64 %div.i.i6.i, 536870911
  %add.ptr.i.i.i = getelementptr i8, ptr %dev.val.i.i, i64 %idx.ext.i.i.i
  %5 = load i8, ptr %add.ptr.i.i.i, align 1
  %and.i.i = and i8 %5, %not.i.i
  store i8 %and.i.i, ptr %add.ptr.i.i.i, align 1
  %indvars.iv.next.i = add nuw nsw i64 %indvars.iv.i, 1
  %6 = load i32, ptr %msix_entries_nr.i, align 4
  %7 = sext i32 %6 to i64
  %cmp.i = icmp slt i64 %indvars.iv.next.i, %7
  br i1 %cmp.i, label %for.body.i, label %msix_free_irq_entries.exit, !llvm.loop !8

msix_free_irq_entries.exit:                       ; preds = %for.body.i, %if.end
  store i32 0, ptr %msix_entries_nr.i, align 4
  %msix_pba_mmio = getelementptr inbounds nuw i8, ptr %dev, i64 1872
  tail call void @memory_region_del_subregion(ptr noundef %pba_bar, ptr noundef nonnull %msix_pba_mmio) #14
  %msix_pba = getelementptr inbounds nuw i8, ptr %dev, i64 1280
  %8 = load ptr, ptr %msix_pba, align 16
  tail call void @g_free(ptr noundef %8) #14
  store ptr null, ptr %msix_pba, align 16
  %msix_table_mmio = getelementptr inbounds nuw i8, ptr %dev, i64 1600
  tail call void @memory_region_del_subregion(ptr noundef %table_bar, ptr noundef nonnull %msix_table_mmio) #14
  %msix_table = getelementptr inbounds nuw i8, ptr %dev, i64 1272
  %9 = load ptr, ptr %msix_table, align 8
  tail call void @g_free(ptr noundef %9) #14
  store ptr null, ptr %msix_table, align 8
  %msix_entry_used = getelementptr inbounds nuw i8, ptr %dev, i64 2144
  %10 = load ptr, ptr %msix_entry_used, align 16
  tail call void @g_free(ptr noundef %10) #14
  store ptr null, ptr %msix_entry_used, align 16
  %11 = load i32, ptr %cap_present.i, align 4
  %and = and i32 %11, -3
  store i32 %and, ptr %cap_present.i, align 4
  %msix_prepare_message = getelementptr inbounds nuw i8, ptr %dev, i64 1312
  store ptr null, ptr %msix_prepare_message, align 16
  br label %return

return:                                           ; preds = %entry, %msix_free_irq_entries.exit
  ret void
}